target datalayout = "e-m:e-p270:32:32-p271:32:32-p272:64:64-i64:64-i128:128-f80:128-n8:16:32:64-S128"
target triple = "x86_64-pc-linux-gnu"

@.str = private unnamed_addr constant [4 x i8] c"CPU\00", align 1
@.str.1 = private unnamed_addr constant [5 x i8] c"CUDA\00", align 1
@.str.2 = private unnamed_addr constant [10 x i8] c"CUDA_HOST\00", align 1
@.str.3 = private unnamed_addr constant [7 x i8] c"OPENCL\00", align 1
@.str.4 = private unnamed_addr constant [7 x i8] c"VULKAN\00", align 1
@.str.5 = private unnamed_addr constant [6 x i8] c"METAL\00", align 1
@.str.6 = private unnamed_addr constant [4 x i8] c"VPI\00", align 1
@.str.7 = private unnamed_addr constant [5 x i8] c"ROCM\00", align 1
@.str.8 = private unnamed_addr constant [10 x i8] c"ROCM_HOST\00", align 1
@.str.9 = private unnamed_addr constant [8 x i8] c"EXT_DEV\00", align 1
@.str.10 = private unnamed_addr constant [13 x i8] c"CUDA_MANAGED\00", align 1
@.str.11 = private unnamed_addr constant [7 x i8] c"ONEAPI\00", align 1
@.str.12 = private unnamed_addr constant [7 x i8] c"WEBGPU\00", align 1
@.str.13 = private unnamed_addr constant [8 x i8] c"HEXAGON\00", align 1
@.str.14 = private unnamed_addr constant [10 x i8] c"<UNKNOWN>\00", align 1

; Function Attrs: mustprogress nounwind uwtable
define noundef ptr @_ZN5arrow26DeviceAllocationTypeToCStrENS_20DeviceAllocationTypeE(i8 noundef signext %0) #0 {
  %2 = alloca ptr, align 8
  %3 = alloca i8, align 1
  store i8 %0, ptr %3, align 1, !tbaa !3
  %4 = load i8, ptr %3, align 1, !tbaa !3
  switch i8 %4, label %19 [
    i8 1, label %5
    i8 2, label %6
    i8 3, label %7
    i8 4, label %8
    i8 7, label %9
    i8 8, label %10
    i8 9, label %11
    i8 10, label %12
    i8 11, label %13
    i8 12, label %14
    i8 13, label %15
    i8 14, label %16
    i8 15, label %17
    i8 16, label %18
  ]

5:                                                ; preds = %1
  store ptr @.str, ptr %2, align 8
  br label %20

6:                                                ; preds = %1
  store ptr @.str.1, ptr %2, align 8
  br label %20

7:                                                ; preds = %1
  store ptr @.str.2, ptr %2, align 8
  br label %20

8:                                                ; preds = %1
  store ptr @.str.3, ptr %2, align 8
  br label %20

9:                                                ; preds = %1
  store ptr @.str.4, ptr %2, align 8
  br label %20

10:                                               ; preds = %1
  store ptr @.str.5, ptr %2, align 8
  br label %20

11:                                               ; preds = %1
  store ptr @.str.6, ptr %2, align 8
  br label %20

12:                                               ; preds = %1
  store ptr @.str.7, ptr %2, align 8
  br label %20

13:                                               ; preds = %1
  store ptr @.str.8, ptr %2, align 8
  br label %20

14:                                               ; preds = %1
  store ptr @.str.9, ptr %2, align 8
  br label %20

15:                                               ; preds = %1
  store ptr @.str.10, ptr %2, align 8
  br label %20

16:                                               ; preds = %1
  store ptr @.str.11, ptr %2, align 8
  br label %20

17:                                               ; preds = %1
  store ptr @.str.12, ptr %2, align 8
  br label %20

18:                                               ; preds = %1
  store ptr @.str.13, ptr %2, align 8
  br label %20

19:                                               ; preds = %1
  store ptr @.str.14, ptr %2, align 8
  br label %20

20:                                               ; preds = %19, %18, %17, %16, %15, %14, %13, %12, %11, %10, %9, %8, %7, %6, %5
  %21 = load ptr, ptr %2, align 8
  ret ptr %21
}