; Function Attrs: mustprogress nofree norecurse nosync nounwind willreturn memory(none) uwtable
define noundef nonnull ptr @_ZN5arrow26DeviceAllocationTypeToCStrENS_20DeviceAllocationTypeE(i8 noundef signext %0) local_unnamed_addr #0 {
  %switch.tableidx = add i8 %0, -1
  %2 = icmp ult i8 %switch.tableidx, 16
  br i1 %2, label %switch.lookup, label %4

switch.lookup:                                    ; preds = %1
  %3 = zext nneg i8 %switch.tableidx to i64
  %switch.gep = getelementptr inbounds nuw [16 x ptr], ptr @switch.table._ZNK5arrow23DeviceAllocationTypeSet8ToStringB5cxx11Ev, i64 0, i64 %3
  %switch.load = load ptr, ptr %switch.gep, align 8
  br label %4

4:                                                ; preds = %1, %switch.lookup
  %.0 = phi ptr [ %switch.load, %switch.lookup ], [ @.str.14, %1 ]
  ret ptr %.0
}